(dp1
S'OriginalConfig'
p2
ccopy_reg
_reconstructor
p3
(cWMCore.Configuration
Configuration
p4
c__builtin__
object
p5
NtRp6
(dp7
S'Site'
p8
g3
(cWMCore.Configuration
ConfigSection
p9
g5
NtRp10
(dp11
S'_internal_documentation'
p12
S''
sS'_internal_settings'
p13
c__builtin__
set
p14
((lp15
S'storageSite'
p16
atRp17
sS'_internal_name'
p18
g8
sS'_internal_docstrings'
p19
(dp20
sS'_internal_children'
p21
g14
((ltRp22
sg16
S'T3_US_FNALLPC'
p23
sS'_internal_parent_ref'
p24
NsbsS'_internal_sections'
p25
(lp26
S'General'
p27
aS'JobType'
p28
aS'Data'
p29
ag8
asg27
g3
(g9
g5
NtRp30
(dp31
g12
S''
sg13
g14
((lp32
S'requestName'
p33
aS'serverUrl'
p34
atRp35
sg18
g27
sg34
S'cmsweb.cern.ch'
p36
sg19
(dp37
sg21
g14
((ltRp38
sg33
S'TTJets_PU40bx25_ClassicMixing_50files'
p39
sg24
NsbsS'_internal_webapps'
p40
(lp41
sS'_internal_components'
p42
(lp43
sg29
g3
(g9
g5
NtRp44
(dp45
S'inputDataset'
p46
S'/TTJets_MSDecaysCKM_central_Tune4C_13TeV-madgraph-tauola/Spring14miniaod-PU40bx25_POSTLS170_V5-v2/MINIAODSIM'
p47
sS'totalUnits'
p48
I50
sS'unitsPerJob'
p49
I1
sg12
S''
sg13
g14
((lp50
g46
aS'publication'
p51
ag49
aS'ignoreLocality'
p52
aS'publishDbsUrl'
p53
aS'splitting'
p54
aS'dbsUrl'
p55
aS'publishDataName'
p56
ag48
atRp57
sg52
I00
sg18
g29
sg54
S'FileBased'
p58
sg19
(dp59
sg55
S'https://cmsweb.cern.ch/dbs/prod/global/DBSReader/'
p60
sg21
g14
((ltRp61
sg56
S'Spring14miniaod-PU40bx25_POSTLS170_V5-v2_ANA'
p62
sg24
Nsg53
S'https://cmsweb.cern.ch/dbs/prod/phys03/DBSWriter/'
p63
sg51
I01
sbsg28
g3
(g9
g5
NtRp64
(dp65
S'outputFiles'
p66
(lp67
S'out.root'
p68
asS'filecacheurl'
p69
S'https://cmsweb.cern.ch/crabcache'
p70
sg12
S''
sg13
g14
((lp71
g66
ag69
aS'pluginName'
p72
aS'capath'
p73
aS'allowNonProductionCMSSW'
p74
aS'psetName'
p75
aS'proxyfilename'
p76
atRp77
sg18
g28
sg19
(dp78
sg72
S'Analysis'
p79
sg73
S'/etc/grid-security/certificates/'
p80
sg21
g14
((ltRp81
sg74
I00
sg75
S'ana_crab.py'
p82
sg24
Nsg76
S'/tmp/x509up_u11867'
p83
sbsbsS'voGroup'
p84
S''
sS'Server'
p85
g36
sS'instance'
p86
S'prod'
p87
sS'RequestName'
p88
S'140918_215555_crab3test-1:jdolen_crab_TTJets_PU40bx25_ClassicMixing_50files'
p89
sS'voRole'
p90
S''
sS'Port'
p91
S''
s.